target datalayout = "e-m:e-p270:32:32-p271:32:32-p272:64:64-i64:64-i128:128-f80:128-n8:16:32:64-S128"
target triple = "x86_64-pc-linux-gnu"

%struct.Object = type { ptr, ptr, ptr, i32, ptr }
%struct.QTailQLink = type { ptr, ptr }
%struct.AHCIDevice = type { %struct.IDEDMA, %struct.IDEBus, i32, i32, i32, %struct.AHCIPortRegs, ptr, ptr, ptr, ptr, i8, i32, i8, ptr, [32 x %struct.NCQTransferState], %struct.MemReentrancyGuard }
%struct.IDEDMA = type { ptr, %struct.QEMUIOVector, ptr }
%struct.QEMUIOVector = type { ptr, i32, %union.anon.3 }
%union.anon.3 = type { %struct.anon.4 }
%struct.anon.4 = type { i32, %struct.iovec }
%struct.iovec = type { ptr, i64 }
%struct.IDEBus = type { %struct.BusState, ptr, ptr, [2 x %struct.IDEState], ptr, i32, i32, ptr, i8, i8, ptr, i32, i8, i64, i32, %struct.PortioList, %struct.PortioList, ptr }
%struct.BusState = type { %struct.Object, ptr, ptr, ptr, i32, i8, i8, i32, %union.BusChildHead, %struct.BusStateEntry, %struct.ResettableState }
%union.BusChildHead = type { %struct.QTailQLink }
%struct.BusStateEntry = type { ptr, ptr }
%struct.ResettableState = type { i32, i8, i8 }
%struct.IDEState = type { ptr, i8, i32, i32, i32, i32, i32, i32, i32, i64, i32, i32, [512 x i8], i32, [21 x i8], [41 x i8], i8, i64, i8, i8, i32, i8, i8, i8, i8, i8, i8, i8, i8, i8, i8, i8, i8, i8, ptr, [9 x i8], %struct.unreported_events, i8, i8, i8, i8, i8, i32, i32, i32, i32, i32, i32, %struct.BlockAcctCookie, ptr, %struct.QEMUIOVector, %struct.anon.6, i64, i32, %struct.QEMUSGList, i32, ptr, ptr, ptr, ptr, i32, i32, i32, i8, ptr, i32, i8, i32, ptr, i32, i32, i8, i8, i32, i8, ptr, i32 }
%struct.unreported_events = type { i8, i8 }
%struct.BlockAcctCookie = type { i64, i64, i32 }
%struct.anon.6 = type { ptr }
%struct.QEMUSGList = type { ptr, i32, i32, i64, ptr, ptr }
%struct.PortioList = type { ptr, ptr, ptr, i32, i32, ptr, ptr, ptr, i8 }
%struct.AHCIPortRegs = type { i32, i32, i32, i32, i32, i32, i32, i32, i32, i32, i32, i32, i32, i32, i32, i32 }
%struct.NCQTransferState = type { ptr, ptr, ptr, %struct.QEMUSGList, %struct.BlockAcctCookie, i32, i64, i8, i8, i8, i8, i8 }
%struct.MemReentrancyGuard = type { i8 }
%struct.timeval = type { i64, i64 }

@trace_events_enabled_count = external global i32, align 4
@message_with_timestamp = external global i8, align 1
@qemu_loglevel = external global i32, align 4
@_TRACE_AHCI_SET_SIGNATURE_DSTATE = external global i16, align 2
@.str.195 = private unnamed_addr constant [137 x i8] c"%d@%zu.%06zu:ahci_set_signature ahci(%p)[%d]: set signature sector:0x%02x nsector:0x%02x lcyl:0x%02x hcyl:0x%02x (cumulatively: 0x%08x)\0A\00", align 1
@.str.196 = private unnamed_addr constant [124 x i8] c"ahci_set_signature ahci(%p)[%d]: set signature sector:0x%02x nsector:0x%02x lcyl:0x%02x hcyl:0x%02x (cumulatively: 0x%08x)\0A\00", align 1

; Function Attrs: inlinehint nounwind sspstrong uwtable
define internal zeroext i1 @qemu_loglevel_mask(i32 noundef %0) #7 {
  %2 = alloca i32, align 4
  store i32 %0, ptr %2, align 4
  %3 = load i32, ptr @qemu_loglevel, align 4
  %4 = load i32, ptr %2, align 4
  %5 = and i32 %3, %4
  %6 = icmp ne i32 %5, 0
  ret i1 %6
}

; Function Attrs: inlinehint nounwind sspstrong uwtable
define internal void @_nocheck__trace_ahci_set_signature(ptr noundef %0, i32 noundef %1, i8 noundef zeroext %2, i8 noundef zeroext %3, i8 noundef zeroext %4, i8 noundef zeroext %5, i32 noundef %6) #7 {
  %8 = alloca ptr, align 8
  %9 = alloca i32, align 4
  %10 = alloca i8, align 1
  %11 = alloca i8, align 1
  %12 = alloca i8, align 1
  %13 = alloca i8, align 1
  %14 = alloca i32, align 4
  %15 = alloca %struct.timeval, align 8
  store ptr %0, ptr %8, align 8
  store i32 %1, ptr %9, align 4
  store i8 %2, ptr %10, align 1
  store i8 %3, ptr %11, align 1
  store i8 %4, ptr %12, align 1
  store i8 %5, ptr %13, align 1
  store i32 %6, ptr %14, align 4
  %16 = load i32, ptr @trace_events_enabled_count, align 4
  %17 = icmp ne i32 %16, 0
  %18 = xor i1 %17, true
  %19 = xor i1 %18, true
  %20 = zext i1 %19 to i32
  %21 = sext i32 %20 to i64
  %22 = call i64 @llvm.expect.i64(i64 %21, i64 0)
  %23 = icmp ne i64 %22, 0
  br i1 %23, label %24, label %64

24:                                               ; preds = %7
  %25 = load i16, ptr @_TRACE_AHCI_SET_SIGNATURE_DSTATE, align 2
  %26 = zext i16 %25 to i32
  %27 = icmp ne i32 %26, 0
  br i1 %27, label %28, label %64

28:                                               ; preds = %24
  %29 = call zeroext i1 @qemu_loglevel_mask(i32 noundef 32768)
  br i1 %29, label %30, label %64

30:                                               ; preds = %28
  %31 = load i8, ptr @message_with_timestamp, align 1, !range !11, !noundef !12
  %32 = trunc i8 %31 to i1
  br i1 %32, label %33, label %51

33:                                               ; preds = %30
  call void @llvm.lifetime.start.p0(i64 16, ptr %15) #15
  call void @llvm.memset.p0.i64(ptr align 8 %15, i8 0, i64 16, i1 false), !annotation !4
  %34 = call i32 @gettimeofday(ptr noundef %15, ptr noundef null) #15
  %35 = call i32 @qemu_get_thread_id()
  %36 = getelementptr inbounds nuw %struct.timeval, ptr %15, i32 0, i32 0
  %37 = load i64, ptr %36, align 8
  %38 = getelementptr inbounds nuw %struct.timeval, ptr %15, i32 0, i32 1
  %39 = load i64, ptr %38, align 8
  %40 = load ptr, ptr %8, align 8
  %41 = load i32, ptr %9, align 4
  %42 = load i8, ptr %10, align 1
  %43 = zext i8 %42 to i32
  %44 = load i8, ptr %11, align 1
  %45 = zext i8 %44 to i32
  %46 = load i8, ptr %12, align 1
  %47 = zext i8 %46 to i32
  %48 = load i8, ptr %13, align 1
  %49 = zext i8 %48 to i32
  %50 = load i32, ptr %14, align 4
  call void (ptr, ...) @qemu_log(ptr noundef @.str.195, i32 noundef %35, i64 noundef %37, i64 noundef %39, ptr noundef %40, i32 noundef %41, i32 noundef %43, i32 noundef %45, i32 noundef %47, i32 noundef %49, i32 noundef %50)
  call void @llvm.lifetime.end.p0(i64 16, ptr %15) #15
  br label %63

51:                                               ; preds = %30
  %52 = load ptr, ptr %8, align 8
  %53 = load i32, ptr %9, align 4
  %54 = load i8, ptr %10, align 1
  %55 = zext i8 %54 to i32
  %56 = load i8, ptr %11, align 1
  %57 = zext i8 %56 to i32
  %58 = load i8, ptr %12, align 1
  %59 = zext i8 %58 to i32
  %60 = load i8, ptr %13, align 1
  %61 = zext i8 %60 to i32
  %62 = load i32, ptr %14, align 4
  call void (ptr, ...) @qemu_log(ptr noundef @.str.196, ptr noundef %52, i32 noundef %53, i32 noundef %55, i32 noundef %57, i32 noundef %59, i32 noundef %61, i32 noundef %62)
  br label %63

63:                                               ; preds = %51, %33
  br label %64

64:                                               ; preds = %63, %28, %24, %7
  ret void
}

; Function Attrs: inlinehint nounwind sspstrong uwtable
define internal void @trace_ahci_set_signature(ptr noundef %0, i32 noundef %1, i8 noundef zeroext %2, i8 noundef zeroext %3, i8 noundef zeroext %4, i8 noundef zeroext %5, i32 noundef %6) #7 {
  %8 = alloca ptr, align 8
  %9 = alloca i32, align 4
  %10 = alloca i8, align 1
  %11 = alloca i8, align 1
  %12 = alloca i8, align 1
  %13 = alloca i8, align 1
  %14 = alloca i32, align 4
  store ptr %0, ptr %8, align 8
  store i32 %1, ptr %9, align 4
  store i8 %2, ptr %10, align 1
  store i8 %3, ptr %11, align 1
  store i8 %4, ptr %12, align 1
  store i8 %5, ptr %13, align 1
  store i32 %6, ptr %14, align 4
  %15 = load ptr, ptr %8, align 8
  %16 = load i32, ptr %9, align 4
  %17 = load i8, ptr %10, align 1
  %18 = load i8, ptr %11, align 1
  %19 = load i8, ptr %12, align 1
  %20 = load i8, ptr %13, align 1
  %21 = load i32, ptr %14, align 4
  call void @_nocheck__trace_ahci_set_signature(ptr noundef %15, i32 noundef %16, i8 noundef zeroext %17, i8 noundef zeroext %18, i8 noundef zeroext %19, i8 noundef zeroext %20, i32 noundef %21)
  ret void
}

; Function Attrs: nounwind sspstrong uwtable
define internal void @ahci_set_signature(ptr noundef %0, i32 noundef %1) #0 {
  %3 = alloca ptr, align 8
  %4 = alloca i32, align 4
  %5 = alloca ptr, align 8
  store ptr %0, ptr %3, align 8
  store i32 %1, ptr %4, align 4
  call void @llvm.lifetime.start.p0(i64 8, ptr %5) #15
  %6 = load ptr, ptr %3, align 8
  %7 = getelementptr inbounds nuw %struct.AHCIDevice, ptr %6, i32 0, i32 1
  %8 = getelementptr inbounds nuw %struct.IDEBus, ptr %7, i32 0, i32 3
  %9 = getelementptr inbounds [2 x %struct.IDEState], ptr %8, i64 0, i64 0
  store ptr %9, ptr %5, align 8
  %10 = load i32, ptr %4, align 4
  %11 = lshr i32 %10, 24
  %12 = and i32 %11, 255
  %13 = trunc i32 %12 to i8
  %14 = load ptr, ptr %5, align 8
  %15 = getelementptr inbounds nuw %struct.IDEState, ptr %14, i32 0, i32 23
  store i8 %13, ptr %15, align 2
  %16 = load i32, ptr %4, align 4
  %17 = lshr i32 %16, 16
  %18 = and i32 %17, 255
  %19 = trunc i32 %18 to i8
  %20 = load ptr, ptr %5, align 8
  %21 = getelementptr inbounds nuw %struct.IDEState, ptr %20, i32 0, i32 22
  store i8 %19, ptr %21, align 1
  %22 = load i32, ptr %4, align 4
  %23 = lshr i32 %22, 8
  %24 = and i32 %23, 255
  %25 = trunc i32 %24 to i8
  %26 = load ptr, ptr %5, align 8
  %27 = getelementptr inbounds nuw %struct.IDEState, ptr %26, i32 0, i32 21
  store i8 %25, ptr %27, align 8
  %28 = load i32, ptr %4, align 4
  %29 = and i32 %28, 255
  %30 = load ptr, ptr %5, align 8
  %31 = getelementptr inbounds nuw %struct.IDEState, ptr %30, i32 0, i32 20
  store i32 %29, ptr %31, align 4
  %32 = load ptr, ptr %3, align 8
  %33 = getelementptr inbounds nuw %struct.AHCIDevice, ptr %32, i32 0, i32 6
  %34 = load ptr, ptr %33, align 8
  %35 = load ptr, ptr %3, align 8
  %36 = getelementptr inbounds nuw %struct.AHCIDevice, ptr %35, i32 0, i32 2
  %37 = load i32, ptr %36, align 8
  %38 = load ptr, ptr %5, align 8
  %39 = getelementptr inbounds nuw %struct.IDEState, ptr %38, i32 0, i32 20
  %40 = load i32, ptr %39, align 4
  %41 = trunc i32 %40 to i8
  %42 = load ptr, ptr %5, align 8
  %43 = getelementptr inbounds nuw %struct.IDEState, ptr %42, i32 0, i32 21
  %44 = load i8, ptr %43, align 8
  %45 = load ptr, ptr %5, align 8
  %46 = getelementptr inbounds nuw %struct.IDEState, ptr %45, i32 0, i32 22
  %47 = load i8, ptr %46, align 1
  %48 = load ptr, ptr %5, align 8
  %49 = getelementptr inbounds nuw %struct.IDEState, ptr %48, i32 0, i32 23
  %50 = load i8, ptr %49, align 2
  %51 = load i32, ptr %4, align 4
  call void @trace_ahci_set_signature(ptr noundef %34, i32 noundef %37, i8 noundef zeroext %41, i8 noundef zeroext %44, i8 noundef zeroext %47, i8 noundef zeroext %50, i32 noundef %51)
  call void @llvm.lifetime.end.p0(i64 8, ptr %5) #15
  ret void
}