; Function Attrs: nounwind sspstrong uwtable
define internal fastcc void @ahci_set_signature(ptr noundef captures(none) initializes((844, 851)) %0, i32 noundef range(i32 -351010559, 258) %1) unnamed_addr #0 {
  %3 = alloca %struct.timeval, align 8
  %4 = lshr i32 %1, 24
  %5 = trunc nuw i32 %4 to i8
  %6 = getelementptr inbounds nuw i8, ptr %0, i64 850
  store i8 %5, ptr %6, align 2
  %7 = lshr i32 %1, 16
  %8 = trunc i32 %7 to i8
  %9 = getelementptr inbounds nuw i8, ptr %0, i64 849
  store i8 %8, ptr %9, align 1
  %10 = lshr i32 %1, 8
  %11 = trunc i32 %10 to i8
  %12 = getelementptr inbounds nuw i8, ptr %0, i64 848
  store i8 %11, ptr %12, align 8
  %13 = and i32 %1, 255
  %14 = getelementptr inbounds nuw i8, ptr %0, i64 844
  store i32 %13, ptr %14, align 4
  %15 = getelementptr inbounds nuw i8, ptr %0, i64 2440
  %16 = load ptr, ptr %15, align 8
  %17 = getelementptr inbounds nuw i8, ptr %0, i64 2360
  %18 = load i32, ptr %17, align 8
  %19 = load i32, ptr @trace_events_enabled_count, align 4
  %.not.i.i = icmp eq i32 %19, 0
  br i1 %.not.i.i, label %trace_ahci_set_signature.exit, label %20, !prof !7

20:                                               ; preds = %2
  %21 = load i16, ptr @_TRACE_AHCI_SET_SIGNATURE_DSTATE, align 2
  %.not13.i.i = icmp eq i16 %21, 0
  br i1 %.not13.i.i, label %trace_ahci_set_signature.exit, label %22

22:                                               ; preds = %20
  %23 = load i32, ptr @qemu_loglevel, align 4
  %24 = and i32 %23, 32768
  %.not14.i.i = icmp eq i32 %24, 0
  br i1 %.not14.i.i, label %trace_ahci_set_signature.exit, label %25

25:                                               ; preds = %22
  %26 = load i8, ptr @message_with_timestamp, align 1, !range !9, !noundef !10
  %27 = trunc nuw i8 %26 to i1
  br i1 %27, label %28, label %36

28:                                               ; preds = %25
  call void @llvm.lifetime.start.p0(i64 16, ptr nonnull %3) #14
  call void @llvm.memset.p0.i64(ptr noundef nonnull align 8 dereferenceable(16) %3, i8 0, i64 16, i1 false), !annotation !11
  %29 = call i32 @gettimeofday(ptr noundef nonnull %3, ptr noundef null) #14
  %30 = tail call i32 @qemu_get_thread_id() #14
  %31 = load i64, ptr %3, align 8
  %32 = getelementptr inbounds nuw i8, ptr %3, i64 8
  %33 = load i64, ptr %32, align 8
  %34 = and i32 %10, 255
  %35 = and i32 %7, 255
  tail call void (ptr, ...) @qemu_log(ptr noundef nonnull @.str.195, i32 noundef %30, i64 noundef %31, i64 noundef %33, ptr noundef %16, i32 noundef %18, i32 noundef %13, i32 noundef %34, i32 noundef %35, i32 noundef %4, i32 noundef range(i32 -351010559, 258) %1) #14
  call void @llvm.lifetime.end.p0(i64 16, ptr nonnull %3) #14
  br label %trace_ahci_set_signature.exit

36:                                               ; preds = %25
  %37 = and i32 %10, 255
  %38 = and i32 %7, 255
  tail call void (ptr, ...) @qemu_log(ptr noundef nonnull @.str.196, ptr noundef %16, i32 noundef %18, i32 noundef %13, i32 noundef %37, i32 noundef %38, i32 noundef %4, i32 noundef range(i32 -351010559, 258) %1) #14
  br label %trace_ahci_set_signature.exit

trace_ahci_set_signature.exit:                    ; preds = %2, %20, %22, %28, %36
  ret void
}